target datalayout = "e-m:e-p270:32:32-p271:32:32-p272:64:64-i64:64-i128:128-f80:128-n8:16:32:64-S128"
target triple = "x86_64-pc-linux-gnu"

%struct.buftag = type { i32, i32, i32, i32, i32 }
%union.LWLockPadded = type { %struct.LWLock, [112 x i8] }
%struct.LWLock = type { i16, %struct.pg_atomic_uint32, %struct.proclist_head }
%struct.pg_atomic_uint32 = type { i32 }
%struct.proclist_head = type { i32, i32 }
%struct.BufferDesc = type { %struct.buftag, i32, %struct.pg_atomic_uint32, i32, i32, %struct.LWLock }
%struct.SpinDelayStatus = type { i32, i32, i32, ptr, i32, ptr }

@.str.3 = private unnamed_addr constant [9 x i8] c"bufmgr.c\00", align 1
@__func__.LockBufHdr = private unnamed_addr constant [11 x i8] c"LockBufHdr\00", align 1
@MainLWLockArray = external global ptr, align 8

; Function Attrs: inlinehint nounwind uwtable
define internal void @pg_atomic_write_u32_impl(ptr noundef %0, i32 noundef %1) #3 {
  %3 = alloca ptr, align 8
  %4 = alloca i32, align 4
  store ptr %0, ptr %3, align 8
  store i32 %1, ptr %4, align 4
  %5 = load i32, ptr %4, align 4
  %6 = load ptr, ptr %3, align 8
  %7 = getelementptr inbounds nuw %struct.pg_atomic_uint32, ptr %6, i32 0, i32 0
  store volatile i32 %5, ptr %7, align 4
  ret void
}

; Function Attrs: inlinehint nounwind uwtable
define internal i32 @pg_atomic_fetch_or_u32_impl(ptr noundef %0, i32 noundef %1) #3 {
  %3 = alloca ptr, align 8
  %4 = alloca i32, align 4
  store ptr %0, ptr %3, align 8
  store i32 %1, ptr %4, align 4
  %5 = load ptr, ptr %3, align 8
  %6 = getelementptr inbounds nuw %struct.pg_atomic_uint32, ptr %5, i32 0, i32 0
  %7 = load i32, ptr %4, align 4
  %8 = atomicrmw or ptr %6, i32 %7 seq_cst, align 4
  ret i32 %8
}

; Function Attrs: inlinehint nounwind uwtable
define internal void @BufTagSetRelForkDetails(ptr noundef %0, i32 noundef %1, i32 noundef %2) #3 {
  %4 = alloca ptr, align 8
  %5 = alloca i32, align 4
  %6 = alloca i32, align 4
  store ptr %0, ptr %4, align 8
  store i32 %1, ptr %5, align 4
  store i32 %2, ptr %6, align 4
  %7 = load i32, ptr %5, align 4
  %8 = load ptr, ptr %4, align 8
  %9 = getelementptr inbounds nuw %struct.buftag, ptr %8, i32 0, i32 2
  store i32 %7, ptr %9, align 4
  %10 = load i32, ptr %6, align 4
  %11 = load ptr, ptr %4, align 8
  %12 = getelementptr inbounds nuw %struct.buftag, ptr %11, i32 0, i32 3
  store i32 %10, ptr %12, align 4
  ret void
}

; Function Attrs: inlinehint nounwind uwtable
define internal void @pg_atomic_write_u32(ptr noundef %0, i32 noundef %1) #3 {
  %3 = alloca ptr, align 8
  %4 = alloca i32, align 4
  store ptr %0, ptr %3, align 8
  store i32 %1, ptr %4, align 4
  %5 = load ptr, ptr %3, align 8
  %6 = load i32, ptr %4, align 4
  call void @pg_atomic_write_u32_impl(ptr noundef %5, i32 noundef %6)
  ret void
}

; Function Attrs: inlinehint nounwind uwtable
define internal i32 @pg_atomic_fetch_or_u32(ptr noundef %0, i32 noundef %1) #3 {
  %3 = alloca ptr, align 8
  %4 = alloca i32, align 4
  store ptr %0, ptr %3, align 8
  store i32 %1, ptr %4, align 4
  %5 = load ptr, ptr %3, align 8
  %6 = load i32, ptr %4, align 4
  %7 = call i32 @pg_atomic_fetch_or_u32_impl(ptr noundef %5, i32 noundef %6)
  ret i32 %7
}

; Function Attrs: inlinehint nounwind uwtable
define internal void @init_spin_delay(ptr noundef %0, ptr noundef %1, i32 noundef %2, ptr noundef %3) #3 {
  %5 = alloca ptr, align 8
  %6 = alloca ptr, align 8
  %7 = alloca i32, align 4
  %8 = alloca ptr, align 8
  store ptr %0, ptr %5, align 8
  store ptr %1, ptr %6, align 8
  store i32 %2, ptr %7, align 4
  store ptr %3, ptr %8, align 8
  %9 = load ptr, ptr %5, align 8
  %10 = getelementptr inbounds nuw %struct.SpinDelayStatus, ptr %9, i32 0, i32 0
  store i32 0, ptr %10, align 8
  %11 = load ptr, ptr %5, align 8
  %12 = getelementptr inbounds nuw %struct.SpinDelayStatus, ptr %11, i32 0, i32 1
  store i32 0, ptr %12, align 4
  %13 = load ptr, ptr %5, align 8
  %14 = getelementptr inbounds nuw %struct.SpinDelayStatus, ptr %13, i32 0, i32 2
  store i32 0, ptr %14, align 8
  %15 = load ptr, ptr %6, align 8
  %16 = load ptr, ptr %5, align 8
  %17 = getelementptr inbounds nuw %struct.SpinDelayStatus, ptr %16, i32 0, i32 3
  store ptr %15, ptr %17, align 8
  %18 = load i32, ptr %7, align 4
  %19 = load ptr, ptr %5, align 8
  %20 = getelementptr inbounds nuw %struct.SpinDelayStatus, ptr %19, i32 0, i32 4
  store i32 %18, ptr %20, align 8
  %21 = load ptr, ptr %8, align 8
  %22 = load ptr, ptr %5, align 8
  %23 = getelementptr inbounds nuw %struct.SpinDelayStatus, ptr %22, i32 0, i32 5
  store ptr %21, ptr %23, align 8
  ret void
}

; Function Attrs: inlinehint nounwind uwtable
define internal i32 @BufTableHashPartition(i32 noundef %0) #3 {
  %2 = alloca i32, align 4
  store i32 %0, ptr %2, align 4
  %3 = load i32, ptr %2, align 4
  %4 = urem i32 %3, 128
  ret i32 %4
}

; Function Attrs: inlinehint nounwind uwtable
define internal void @ClearBufferTag(ptr noundef %0) #3 {
  %2 = alloca ptr, align 8
  store ptr %0, ptr %2, align 8
  %3 = load ptr, ptr %2, align 8
  %4 = getelementptr inbounds nuw %struct.buftag, ptr %3, i32 0, i32 0
  store i32 0, ptr %4, align 4
  %5 = load ptr, ptr %2, align 8
  %6 = getelementptr inbounds nuw %struct.buftag, ptr %5, i32 0, i32 1
  store i32 0, ptr %6, align 4
  %7 = load ptr, ptr %2, align 8
  call void @BufTagSetRelForkDetails(ptr noundef %7, i32 noundef 0, i32 noundef -1)
  %8 = load ptr, ptr %2, align 8
  %9 = getelementptr inbounds nuw %struct.buftag, ptr %8, i32 0, i32 4
  store i32 -1, ptr %9, align 4
  ret void
}

; Function Attrs: inlinehint nounwind uwtable
define internal void @UnlockBufHdr(ptr noundef %0, i32 noundef %1) #3 {
  %3 = alloca ptr, align 8
  %4 = alloca i32, align 4
  store ptr %0, ptr %3, align 8
  store i32 %1, ptr %4, align 4
  call void asm sideeffect "", "~{memory},~{dirflag},~{fpsr},~{flags}"() #10, !srcloc !8
  %5 = load ptr, ptr %3, align 8
  %6 = getelementptr inbounds nuw %struct.BufferDesc, ptr %5, i32 0, i32 2
  %7 = load i32, ptr %4, align 4
  %8 = and i32 %7, -4194305
  call void @pg_atomic_write_u32(ptr noundef %6, i32 noundef %8)
  ret void
}

; Function Attrs: nounwind uwtable
define dso_local i32 @LockBufHdr(ptr noundef %0) #0 {
  %2 = alloca ptr, align 8
  %3 = alloca %struct.SpinDelayStatus, align 8
  %4 = alloca i32, align 4
  store ptr %0, ptr %2, align 8
  call void @llvm.lifetime.start.p0(i64 40, ptr %3) #10
  call void @llvm.lifetime.start.p0(i64 4, ptr %4) #10
  call void @init_spin_delay(ptr noundef %3, ptr noundef @.str.3, i32 noundef 5707, ptr noundef @__func__.LockBufHdr)
  br label %5

5:                                                ; preds = %14, %1
  br label %6

6:                                                ; preds = %5
  %7 = load ptr, ptr %2, align 8
  %8 = getelementptr inbounds nuw %struct.BufferDesc, ptr %7, i32 0, i32 2
  %9 = call i32 @pg_atomic_fetch_or_u32(ptr noundef %8, i32 noundef 4194304)
  store i32 %9, ptr %4, align 4
  %10 = load i32, ptr %4, align 4
  %11 = and i32 %10, 4194304
  %12 = icmp ne i32 %11, 0
  br i1 %12, label %14, label %13

13:                                               ; preds = %6
  br label %15

14:                                               ; preds = %6
  call void @perform_spin_delay(ptr noundef %3)
  br label %5

15:                                               ; preds = %13
  call void @finish_spin_delay(ptr noundef %3)
  %16 = load i32, ptr %4, align 4
  %17 = or i32 %16, 4194304
  call void @llvm.lifetime.end.p0(i64 4, ptr %4) #10
  call void @llvm.lifetime.end.p0(i64 40, ptr %3) #10
  ret i32 %17
}

; Function Attrs: inlinehint nounwind uwtable
define internal ptr @BufMappingPartitionLock(i32 noundef %0) #3 {
  %2 = alloca i32, align 4
  store i32 %0, ptr %2, align 4
  %3 = load ptr, ptr @MainLWLockArray, align 8
  %4 = load i32, ptr %2, align 4
  %5 = call i32 @BufTableHashPartition(i32 noundef %4)
  %6 = add i32 53, %5
  %7 = zext i32 %6 to i64
  %8 = getelementptr inbounds nuw %union.LWLockPadded, ptr %3, i64 %7
  ret ptr %8
}

; Function Attrs: nounwind uwtable
define internal zeroext i1 @InvalidateVictimBuffer(ptr noundef %0) #0 {
  %2 = alloca i1, align 1
  %3 = alloca ptr, align 8
  %4 = alloca i32, align 4
  %5 = alloca i32, align 4
  %6 = alloca ptr, align 8
  %7 = alloca %struct.buftag, align 4
  %8 = alloca i32, align 4
  store ptr %0, ptr %3, align 8
  call void @llvm.lifetime.start.p0(i64 4, ptr %4) #10
  call void @llvm.lifetime.start.p0(i64 4, ptr %5) #10
  call void @llvm.lifetime.start.p0(i64 8, ptr %6) #10
  call void @llvm.lifetime.start.p0(i64 20, ptr %7) #10
  %9 = load ptr, ptr %3, align 8
  %10 = getelementptr inbounds nuw %struct.BufferDesc, ptr %9, i32 0, i32 0
  call void @llvm.memcpy.p0.p0.i64(ptr align 4 %7, ptr align 4 %10, i64 20, i1 false)
  %11 = call i32 @BufTableHashCode(ptr noundef %7)
  store i32 %11, ptr %5, align 4
  %12 = load i32, ptr %5, align 4
  %13 = call ptr @BufMappingPartitionLock(i32 noundef %12)
  store ptr %13, ptr %6, align 8
  %14 = load ptr, ptr %6, align 8
  %15 = call zeroext i1 @LWLockAcquire(ptr noundef %14, i32 noundef 0)
  %16 = load ptr, ptr %3, align 8
  %17 = call i32 @LockBufHdr(ptr noundef %16)
  store i32 %17, ptr %4, align 4
  %18 = load i32, ptr %4, align 4
  %19 = and i32 %18, 262143
  %20 = icmp ne i32 %19, 1
  br i1 %20, label %25, label %21

21:                                               ; preds = %1
  %22 = load i32, ptr %4, align 4
  %23 = and i32 %22, 8388608
  %24 = icmp ne i32 %23, 0
  br i1 %24, label %25, label %29

25:                                               ; preds = %21, %1
  %26 = load ptr, ptr %3, align 8
  %27 = load i32, ptr %4, align 4
  call void @UnlockBufHdr(ptr noundef %26, i32 noundef %27)
  %28 = load ptr, ptr %6, align 8
  call void @LWLockRelease(ptr noundef %28)
  store i1 false, ptr %2, align 1
  store i32 1, ptr %8, align 4
  br label %38

29:                                               ; preds = %21
  %30 = load ptr, ptr %3, align 8
  %31 = getelementptr inbounds nuw %struct.BufferDesc, ptr %30, i32 0, i32 0
  call void @ClearBufferTag(ptr noundef %31)
  %32 = load i32, ptr %4, align 4
  %33 = and i32 %32, 262143
  store i32 %33, ptr %4, align 4
  %34 = load ptr, ptr %3, align 8
  %35 = load i32, ptr %4, align 4
  call void @UnlockBufHdr(ptr noundef %34, i32 noundef %35)
  %36 = load i32, ptr %5, align 4
  call void @BufTableDelete(ptr noundef %7, i32 noundef %36)
  %37 = load ptr, ptr %6, align 8
  call void @LWLockRelease(ptr noundef %37)
  store i1 true, ptr %2, align 1
  store i32 1, ptr %8, align 4
  br label %38

38:                                               ; preds = %29, %25
  call void @llvm.lifetime.end.p0(i64 20, ptr %7) #10
  call void @llvm.lifetime.end.p0(i64 8, ptr %6) #10
  call void @llvm.lifetime.end.p0(i64 4, ptr %5) #10
  call void @llvm.lifetime.end.p0(i64 4, ptr %4) #10
  %39 = load i1, ptr %2, align 1
  ret i1 %39
}