; Function Attrs: nounwind uwtable
define internal fastcc noundef zeroext i1 @InvalidateVictimBuffer(ptr noundef %0) unnamed_addr #0 {
  %2 = alloca %struct.SpinDelayStatus, align 8
  %3 = alloca %struct.buftag, align 4
  call void @llvm.lifetime.start.p0(i64 20, ptr nonnull %3) #16
  call void @llvm.memcpy.p0.p0.i64(ptr noundef nonnull align 4 dereferenceable(20) %3, ptr noundef nonnull align 4 dereferenceable(20) %0, i64 20, i1 false)
  %4 = call i32 @BufTableHashCode(ptr noundef nonnull %3) #16
  %5 = load ptr, ptr @MainLWLockArray, align 8
  %6 = and i32 %4, 127
  %7 = zext nneg i32 %6 to i64
  %8 = getelementptr inbounds nuw %union.LWLockPadded, ptr %5, i64 %7
  %9 = getelementptr inbounds nuw i8, ptr %8, i64 6784
  %10 = call zeroext i1 @LWLockAcquire(ptr noundef nonnull %9, i32 noundef 0) #16
  call void @llvm.lifetime.start.p0(i64 40, ptr nonnull %2) #16
  store i32 0, ptr %2, align 8
  %11 = getelementptr inbounds nuw i8, ptr %2, i64 4
  store i32 0, ptr %11, align 4
  %12 = getelementptr inbounds nuw i8, ptr %2, i64 8
  store i32 0, ptr %12, align 8
  %13 = getelementptr inbounds nuw i8, ptr %2, i64 16
  store ptr @.str.3, ptr %13, align 8
  %14 = getelementptr inbounds nuw i8, ptr %2, i64 24
  store i32 5707, ptr %14, align 8
  %15 = getelementptr inbounds nuw i8, ptr %2, i64 32
  store ptr @__func__.LockBufHdr, ptr %15, align 8
  %16 = getelementptr inbounds nuw i8, ptr %0, i64 24
  %17 = atomicrmw or ptr %16, i32 4194304 seq_cst, align 4
  %18 = and i32 %17, 4194304
  %.not2.i = icmp eq i32 %18, 0
  br i1 %.not2.i, label %LockBufHdr.exit, label %.lr.ph.i

.lr.ph.i:                                         ; preds = %1, %.lr.ph.i
  call void @perform_spin_delay(ptr noundef nonnull %2) #16
  %19 = atomicrmw or ptr %16, i32 4194304 seq_cst, align 4
  %20 = and i32 %19, 4194304
  %.not.i = icmp eq i32 %20, 0
  br i1 %.not.i, label %LockBufHdr.exit, label %.lr.ph.i

LockBufHdr.exit:                                  ; preds = %.lr.ph.i, %1
  %.lcssa.i = phi i32 [ %17, %1 ], [ %19, %.lr.ph.i ]
  call void @finish_spin_delay(ptr noundef nonnull %2) #16
  call void @llvm.lifetime.end.p0(i64 40, ptr nonnull %2) #16
  %21 = and i32 %.lcssa.i, 8650751
  %or.cond = icmp eq i32 %21, 1
  br i1 %or.cond, label %24, label %22

22:                                               ; preds = %LockBufHdr.exit
  call void asm sideeffect "", "~{memory},~{dirflag},~{fpsr},~{flags}"() #16, !srcloc !4
  %23 = and i32 %.lcssa.i, -4194305
  store volatile i32 %23, ptr %16, align 4
  br label %29

24:                                               ; preds = %LockBufHdr.exit
  store i32 0, ptr %0, align 4
  %25 = getelementptr inbounds nuw i8, ptr %0, i64 4
  store i32 0, ptr %25, align 4
  %26 = getelementptr inbounds nuw i8, ptr %0, i64 8
  store i32 0, ptr %26, align 4
  %27 = getelementptr inbounds nuw i8, ptr %0, i64 12
  store i32 -1, ptr %27, align 4
  %28 = getelementptr inbounds nuw i8, ptr %0, i64 16
  store i32 -1, ptr %28, align 4
  call void asm sideeffect "", "~{memory},~{dirflag},~{fpsr},~{flags}"() #16, !srcloc !4
  store volatile i32 1, ptr %16, align 4
  call void @BufTableDelete(ptr noundef nonnull %3, i32 noundef %4) #16
  br label %29

29:                                               ; preds = %24, %22
  call void @LWLockRelease(ptr noundef nonnull %9) #16
  call void @llvm.lifetime.end.p0(i64 20, ptr nonnull %3) #16
  ret i1 %or.cond
}